; ModuleID = '49/876.c'
source_filename = "49/876.c"
target datalayout = "e-m:e-p270:32:32-p271:32:32-p272:64:64-i64:64-f80:128-n8:16:32:64-S128"
target triple = "x86_64-pc-linux-gnu"

@.str = private unnamed_addr constant [3 x i8] c"%c\00", align 1
@.str.1 = private unnamed_addr constant [2 x i8] c"\0A\00", align 1

; Function Attrs: noinline nounwind uwtable
define dso_local void @main() #0 {
  %1 = alloca i32, align 4
  %2 = alloca i32, align 4
  %3 = alloca i32, align 4
  %4 = alloca i32, align 4
  %5 = alloca i32, align 4
  %6 = alloca i32, align 4
  %7 = alloca i32, align 4
  %8 = alloca i32, align 4
  %9 = alloca [1000 x i8], align 16
  %10 = alloca [1000 x [1000 x i8]], align 16
  store i32 2, i32* %1, align 4
  %11 = getelementptr inbounds [1000 x i8], [1000 x i8]* %9, i64 0, i64 0
  %12 = call i32 (i8*, ...) bitcast (i32 (...)* @gets to i32 (i8*, ...)*)(i8* %11)
  %13 = getelementptr inbounds [1000 x i8], [1000 x i8]* %9, i64 0, i64 0
  %14 = call i64 @strlen(i8* %13) #3
  %15 = trunc i64 %14 to i32
  store i32 %15, i32* %5, align 4
  store i32 2, i32* %1, align 4
  br label %16

16:                                               ; preds = %114, %0
  %17 = load i32, i32* %1, align 4
  %18 = load i32, i32* %5, align 4
  %19 = icmp sle i32 %17, %18
  br i1 %19, label %20, label %117

20:                                               ; preds = %16
  store i32 0, i32* %3, align 4
  br label %21

21:                                               ; preds = %110, %20
  %22 = load i32, i32* %3, align 4
  %23 = load i32, i32* %5, align 4
  %24 = load i32, i32* %1, align 4
  %25 = sub nsw i32 %23, %24
  %26 = icmp sle i32 %22, %25
  br i1 %26, label %27, label %113

27:                                               ; preds = %21
  store i32 0, i32* %6, align 4
  store i32 1, i32* %7, align 4
  %28 = load i32, i32* %3, align 4
  store i32 %28, i32* %2, align 4
  br label %29

29:                                               ; preds = %53, %27
  %30 = load i32, i32* %2, align 4
  %31 = load i32, i32* %3, align 4
  %32 = load i32, i32* %1, align 4
  %33 = add nsw i32 %31, %32
  %34 = sub nsw i32 %33, 1
  %35 = icmp sle i32 %30, %34
  br i1 %35, label %36, label %56

36:                                               ; preds = %29
  %37 = load i32, i32* %1, align 4
  %38 = load i32, i32* %3, align 4
  %39 = add nsw i32 %37, %38
  %40 = load i32, i32* %7, align 4
  %41 = sub nsw i32 %39, %40
  %42 = sext i32 %41 to i64
  %43 = getelementptr inbounds [1000 x i8], [1000 x i8]* %9, i64 0, i64 %42
  %44 = load i8, i8* %43, align 1
  %45 = load i32, i32* %3, align 4
  %46 = sext i32 %45 to i64
  %47 = getelementptr inbounds [1000 x [1000 x i8]], [1000 x [1000 x i8]]* %10, i64 0, i64 %46
  %48 = load i32, i32* %2, align 4
  %49 = sext i32 %48 to i64
  %50 = getelementptr inbounds [1000 x i8], [1000 x i8]* %47, i64 0, i64 %49
  store i8 %44, i8* %50, align 1
  %51 = load i32, i32* %7, align 4
  %52 = add nsw i32 %51, 1
  store i32 %52, i32* %7, align 4
  br label %53

53:                                               ; preds = %36
  %54 = load i32, i32* %2, align 4
  %55 = add nsw i32 %54, 1
  store i32 %55, i32* %2, align 4
  br label %29

56:                                               ; preds = %29
  %57 = load i32, i32* %3, align 4
  store i32 %57, i32* %4, align 4
  br label %58

58:                                               ; preds = %82, %56
  %59 = load i32, i32* %4, align 4
  %60 = load i32, i32* %3, align 4
  %61 = load i32, i32* %1, align 4
  %62 = add nsw i32 %60, %61
  %63 = sub nsw i32 %62, 1
  %64 = icmp sle i32 %59, %63
  br i1 %64, label %65, label %85

65:                                               ; preds = %58
  %66 = load i32, i32* %3, align 4
  %67 = sext i32 %66 to i64
  %68 = getelementptr inbounds [1000 x [1000 x i8]], [1000 x [1000 x i8]]* %10, i64 0, i64 %67
  %69 = load i32, i32* %4, align 4
  %70 = sext i32 %69 to i64
  %71 = getelementptr inbounds [1000 x i8], [1000 x i8]* %68, i64 0, i64 %70
  %72 = load i8, i8* %71, align 1
  %73 = sext i8 %72 to i32
  %74 = load i32, i32* %4, align 4
  %75 = sext i32 %74 to i64
  %76 = getelementptr inbounds [1000 x i8], [1000 x i8]* %9, i64 0, i64 %75
  %77 = load i8, i8* %76, align 1
  %78 = sext i8 %77 to i32
  %79 = icmp ne i32 %73, %78
  br i1 %79, label %80, label %81

80:                                               ; preds = %65
  store i32 1, i32* %6, align 4
  br label %85

81:                                               ; preds = %65
  br label %82

82:                                               ; preds = %81
  %83 = load i32, i32* %4, align 4
  %84 = add nsw i32 %83, 1
  store i32 %84, i32* %4, align 4
  br label %58

85:                                               ; preds = %80, %58
  %86 = load i32, i32* %6, align 4
  %87 = icmp eq i32 %86, 0
  br i1 %87, label %88, label %109

88:                                               ; preds = %85
  %89 = load i32, i32* %3, align 4
  store i32 %89, i32* %8, align 4
  br label %90

90:                                               ; preds = %104, %88
  %91 = load i32, i32* %8, align 4
  %92 = load i32, i32* %3, align 4
  %93 = load i32, i32* %1, align 4
  %94 = add nsw i32 %92, %93
  %95 = sub nsw i32 %94, 1
  %96 = icmp sle i32 %91, %95
  br i1 %96, label %97, label %107

97:                                               ; preds = %90
  %98 = load i32, i32* %8, align 4
  %99 = sext i32 %98 to i64
  %100 = getelementptr inbounds [1000 x i8], [1000 x i8]* %9, i64 0, i64 %99
  %101 = load i8, i8* %100, align 1
  %102 = sext i8 %101 to i32
  %103 = call i32 (i8*, ...) @printf(i8* getelementptr inbounds ([3 x i8], [3 x i8]* @.str, i64 0, i64 0), i32 %102)
  br label %104

104:                                              ; preds = %97
  %105 = load i32, i32* %8, align 4
  %106 = add nsw i32 %105, 1
  store i32 %106, i32* %8, align 4
  br label %90

107:                                              ; preds = %90
  %108 = call i32 (i8*, ...) @printf(i8* getelementptr inbounds ([2 x i8], [2 x i8]* @.str.1, i64 0, i64 0))
  br label %109

109:                                              ; preds = %107, %85
  br label %110

110:                                              ; preds = %109
  %111 = load i32, i32* %3, align 4
  %112 = add nsw i32 %111, 1
  store i32 %112, i32* %3, align 4
  br label %21

113:                                              ; preds = %21
  br label %114

114:                                              ; preds = %113
  %115 = load i32, i32* %1, align 4
  %116 = add nsw i32 %115, 2
  store i32 %116, i32* %1, align 4
  br label %16

117:                                              ; preds = %16
  ret void
}

declare dso_local i32 @gets(...) #1

; Function Attrs: nounwind readonly
declare dso_local i64 @strlen(i8*) #2

declare dso_local i32 @printf(i8*, ...) #1


!llvm.module.flags = !{!0}
!llvm.ident = !{!1}

!0 = !{i32 1, !"wchar_size", i32 4}
!1 = !{!"clang version 10.0.0-4ubuntu1 "}
